target datalayout = "e-m:e-p270:32:32-p271:32:32-p272:64:64-i64:64-i128:128-f80:128-n8:16:32:64-S128"
target triple = "x86_64-pc-linux-gnu"

%struct.PLpgSQL_execstate = type { ptr, ptr, ptr, i64, i8, i32, i32, i8, i8, i8, i8, ptr, ptr, ptr, ptr, ptr, ptr, ptr, i32, i32, ptr, ptr, ptr, ptr, ptr, ptr, ptr, ptr, ptr, ptr, i64, ptr, ptr, ptr, ptr, ptr }
%struct.PLpgSQL_datum = type { i32, i32 }
%struct.PLpgSQL_var = type { i32, i32, ptr, i32, i8, i8, ptr, ptr, ptr, i32, i32, i64, i8, i8, i32 }
%struct.PLpgSQL_type = type { ptr, i32, i32, i16, i8, i8, i32, i8, i32, ptr, ptr, i64 }
%struct.PLpgSQL_rec = type { i32, i32, ptr, i32, i8, i8, ptr, ptr, i32, i32, ptr }
%struct.ExpandedRecordHeader = type { %struct.ExpandedObjectHeader, i32, i32, i32, i32, i32, ptr, i64, ptr, ptr, i32, i64, i64, i32, i8, ptr, ptr, ptr, ptr, ptr, ptr, %struct.MemoryContextCallback }
%struct.ExpandedObjectHeader = type { i32, ptr, ptr, [10 x i8], [10 x i8] }
%struct.MemoryContextCallback = type { ptr, ptr, ptr }
%struct.PLpgSQL_recfield = type { i32, i32, ptr, i32, i32, i64, %struct.ExpandedRecordFieldInfo }
%struct.ExpandedRecordFieldInfo = type { i32, i32, i32, i32 }

@.str.2 = private unnamed_addr constant [11 x i8] c"plpgsql-18\00", align 1
@.str.3 = private unnamed_addr constant [23 x i8] c"unrecognized dtype: %d\00", align 1
@.str.4 = private unnamed_addr constant [10 x i8] c"pl_exec.c\00", align 1
@.str.16 = private unnamed_addr constant [30 x i8] c"record \22%s\22 has no field \22%s\22\00", align 1
@__func__.plpgsql_exec_get_datum_type = private unnamed_addr constant [28 x i8] c"plpgsql_exec_get_datum_type\00", align 1

; Function Attrs: nounwind uwtable
define i32 @plpgsql_exec_get_datum_type(ptr noundef %0, ptr noundef %1) #0 {
  %3 = alloca ptr, align 8
  %4 = alloca ptr, align 8
  %5 = alloca i32, align 4
  %6 = alloca ptr, align 8
  %7 = alloca ptr, align 8
  %8 = alloca ptr, align 8
  %9 = alloca ptr, align 8
  store ptr %0, ptr %3, align 8
  store ptr %1, ptr %4, align 8
  call void @llvm.lifetime.start.p0(i64 4, ptr %5) #12
  %10 = load ptr, ptr %4, align 8
  %11 = getelementptr inbounds nuw %struct.PLpgSQL_datum, ptr %10, i32 0, i32 0
  %12 = load i32, ptr %11, align 4
  switch i32 %12, label %117 [
    i32 0, label %13
    i32 4, label %13
    i32 2, label %20
    i32 3, label %42
  ]

13:                                               ; preds = %2, %2
  call void @llvm.lifetime.start.p0(i64 8, ptr %6) #12
  %14 = load ptr, ptr %4, align 8
  store ptr %14, ptr %6, align 8
  %15 = load ptr, ptr %6, align 8
  %16 = getelementptr inbounds nuw %struct.PLpgSQL_var, ptr %15, i32 0, i32 7
  %17 = load ptr, ptr %16, align 8
  %18 = getelementptr inbounds nuw %struct.PLpgSQL_type, ptr %17, i32 0, i32 1
  %19 = load i32, ptr %18, align 8
  store i32 %19, ptr %5, align 4
  call void @llvm.lifetime.end.p0(i64 8, ptr %6) #12
  br label %131

20:                                               ; preds = %2
  call void @llvm.lifetime.start.p0(i64 8, ptr %7) #12
  %21 = load ptr, ptr %4, align 8
  store ptr %21, ptr %7, align 8
  %22 = load ptr, ptr %7, align 8
  %23 = getelementptr inbounds nuw %struct.PLpgSQL_rec, ptr %22, i32 0, i32 10
  %24 = load ptr, ptr %23, align 8
  %25 = icmp eq ptr %24, null
  br i1 %25, label %31, label %26

26:                                               ; preds = %20
  %27 = load ptr, ptr %7, align 8
  %28 = getelementptr inbounds nuw %struct.PLpgSQL_rec, ptr %27, i32 0, i32 8
  %29 = load i32, ptr %28, align 8
  %30 = icmp ne i32 %29, 2249
  br i1 %30, label %31, label %35

31:                                               ; preds = %26, %20
  %32 = load ptr, ptr %7, align 8
  %33 = getelementptr inbounds nuw %struct.PLpgSQL_rec, ptr %32, i32 0, i32 8
  %34 = load i32, ptr %33, align 8
  store i32 %34, ptr %5, align 4
  br label %41

35:                                               ; preds = %26
  %36 = load ptr, ptr %7, align 8
  %37 = getelementptr inbounds nuw %struct.PLpgSQL_rec, ptr %36, i32 0, i32 10
  %38 = load ptr, ptr %37, align 8
  %39 = getelementptr inbounds nuw %struct.ExpandedRecordHeader, ptr %38, i32 0, i32 4
  %40 = load i32, ptr %39, align 4
  store i32 %40, ptr %5, align 4
  br label %41

41:                                               ; preds = %35, %31
  call void @llvm.lifetime.end.p0(i64 8, ptr %7) #12
  br label %131

42:                                               ; preds = %2
  call void @llvm.lifetime.start.p0(i64 8, ptr %8) #12
  %43 = load ptr, ptr %4, align 8
  store ptr %43, ptr %8, align 8
  call void @llvm.lifetime.start.p0(i64 8, ptr %9) #12
  %44 = load ptr, ptr %3, align 8
  %45 = getelementptr inbounds nuw %struct.PLpgSQL_execstate, ptr %44, i32 0, i32 20
  %46 = load ptr, ptr %45, align 8
  %47 = load ptr, ptr %8, align 8
  %48 = getelementptr inbounds nuw %struct.PLpgSQL_recfield, ptr %47, i32 0, i32 3
  %49 = load i32, ptr %48, align 8
  %50 = sext i32 %49 to i64
  %51 = getelementptr inbounds ptr, ptr %46, i64 %50
  %52 = load ptr, ptr %51, align 8
  store ptr %52, ptr %9, align 8
  %53 = load ptr, ptr %9, align 8
  %54 = getelementptr inbounds nuw %struct.PLpgSQL_rec, ptr %53, i32 0, i32 10
  %55 = load ptr, ptr %54, align 8
  %56 = icmp eq ptr %55, null
  br i1 %56, label %57, label %60

57:                                               ; preds = %42
  %58 = load ptr, ptr %3, align 8
  %59 = load ptr, ptr %9, align 8
  call void @instantiate_empty_record_variable(ptr noundef %58, ptr noundef %59)
  br label %60

60:                                               ; preds = %57, %42
  %61 = load ptr, ptr %8, align 8
  %62 = getelementptr inbounds nuw %struct.PLpgSQL_recfield, ptr %61, i32 0, i32 5
  %63 = load i64, ptr %62, align 8
  %64 = load ptr, ptr %9, align 8
  %65 = getelementptr inbounds nuw %struct.PLpgSQL_rec, ptr %64, i32 0, i32 10
  %66 = load ptr, ptr %65, align 8
  %67 = getelementptr inbounds nuw %struct.ExpandedRecordHeader, ptr %66, i32 0, i32 7
  %68 = load i64, ptr %67, align 8
  %69 = icmp ne i64 %63, %68
  %70 = zext i1 %69 to i32
  %71 = icmp ne i32 %70, 0
  %72 = zext i1 %71 to i32
  %73 = sext i32 %72 to i64
  %74 = call i64 @llvm.expect.i64(i64 %73, i64 0)
  %75 = icmp ne i64 %74, 0
  br i1 %75, label %76, label %112

76:                                               ; preds = %60
  %77 = load ptr, ptr %9, align 8
  %78 = getelementptr inbounds nuw %struct.PLpgSQL_rec, ptr %77, i32 0, i32 10
  %79 = load ptr, ptr %78, align 8
  %80 = load ptr, ptr %8, align 8
  %81 = getelementptr inbounds nuw %struct.PLpgSQL_recfield, ptr %80, i32 0, i32 2
  %82 = load ptr, ptr %81, align 8
  %83 = load ptr, ptr %8, align 8
  %84 = getelementptr inbounds nuw %struct.PLpgSQL_recfield, ptr %83, i32 0, i32 6
  %85 = call zeroext i1 @expanded_record_lookup_field(ptr noundef %79, ptr noundef %82, ptr noundef %84)
  br i1 %85, label %104, label %86

86:                                               ; preds = %76
  br label %87

87:                                               ; preds = %86
  br i1 true, label %88, label %90

88:                                               ; preds = %87
  %89 = call zeroext i1 @errstart_cold(i32 noundef 21, ptr noundef @.str.2) #13
  br i1 %89, label %92, label %101

90:                                               ; preds = %87
  %91 = call zeroext i1 @errstart(i32 noundef 21, ptr noundef @.str.2)
  br i1 %91, label %92, label %101

92:                                               ; preds = %90, %88
  %93 = call i32 @errcode(i32 noundef 50360452)
  %94 = load ptr, ptr %9, align 8
  %95 = getelementptr inbounds nuw %struct.PLpgSQL_rec, ptr %94, i32 0, i32 2
  %96 = load ptr, ptr %95, align 8
  %97 = load ptr, ptr %8, align 8
  %98 = getelementptr inbounds nuw %struct.PLpgSQL_recfield, ptr %97, i32 0, i32 2
  %99 = load ptr, ptr %98, align 8
  %100 = call i32 (ptr, ...) @errmsg(ptr noundef @.str.16, ptr noundef %96, ptr noundef %99)
  call void @errfinish(ptr noundef @.str.4, i32 noundef 5513, ptr noundef @__func__.plpgsql_exec_get_datum_type)
  br label %101

101:                                              ; preds = %92, %90, %88
  unreachable

102:                                              ; No predecessors!
  br label %103

103:                                              ; preds = %102
  br label %104

104:                                              ; preds = %103, %76
  %105 = load ptr, ptr %9, align 8
  %106 = getelementptr inbounds nuw %struct.PLpgSQL_rec, ptr %105, i32 0, i32 10
  %107 = load ptr, ptr %106, align 8
  %108 = getelementptr inbounds nuw %struct.ExpandedRecordHeader, ptr %107, i32 0, i32 7
  %109 = load i64, ptr %108, align 8
  %110 = load ptr, ptr %8, align 8
  %111 = getelementptr inbounds nuw %struct.PLpgSQL_recfield, ptr %110, i32 0, i32 5
  store i64 %109, ptr %111, align 8
  br label %112

112:                                              ; preds = %104, %60
  %113 = load ptr, ptr %8, align 8
  %114 = getelementptr inbounds nuw %struct.PLpgSQL_recfield, ptr %113, i32 0, i32 6
  %115 = getelementptr inbounds nuw %struct.ExpandedRecordFieldInfo, ptr %114, i32 0, i32 1
  %116 = load i32, ptr %115, align 4
  store i32 %116, ptr %5, align 4
  call void @llvm.lifetime.end.p0(i64 8, ptr %9) #12
  call void @llvm.lifetime.end.p0(i64 8, ptr %8) #12
  br label %131

117:                                              ; preds = %2
  br label %118

118:                                              ; preds = %117
  br i1 true, label %119, label %121

119:                                              ; preds = %118
  %120 = call zeroext i1 @errstart_cold(i32 noundef 21, ptr noundef @.str.2) #13
  br i1 %120, label %123, label %128

121:                                              ; preds = %118
  %122 = call zeroext i1 @errstart(i32 noundef 21, ptr noundef @.str.2)
  br i1 %122, label %123, label %128

123:                                              ; preds = %121, %119
  %124 = load ptr, ptr %4, align 8
  %125 = getelementptr inbounds nuw %struct.PLpgSQL_datum, ptr %124, i32 0, i32 0
  %126 = load i32, ptr %125, align 4
  %127 = call i32 (ptr, ...) @errmsg_internal(ptr noundef @.str.3, i32 noundef %126)
  call void @errfinish(ptr noundef @.str.4, i32 noundef 5522, ptr noundef @__func__.plpgsql_exec_get_datum_type)
  br label %128

128:                                              ; preds = %123, %121, %119
  unreachable

129:                                              ; No predecessors!
  br label %130

130:                                              ; preds = %129
  store i32 0, ptr %5, align 4
  br label %131

131:                                              ; preds = %130, %112, %41, %13
  %132 = load i32, ptr %5, align 4
  call void @llvm.lifetime.end.p0(i64 4, ptr %5) #12
  ret i32 %132
}