; Function Attrs: nounwind uwtable
define i32 @plpgsql_exec_get_datum_type(ptr noundef readonly captures(none) %0, ptr noundef %1) local_unnamed_addr #0 {
  %3 = load i32, ptr %1, align 4
  switch i32 %3, label %55 [
    i32 0, label %4
    i32 4, label %4
    i32 2, label %8
    i32 3, label %19
  ]

4:                                                ; preds = %2, %2
  %5 = getelementptr inbounds nuw i8, ptr %1, i64 32
  %6 = load ptr, ptr %5, align 8
  %7 = getelementptr inbounds nuw i8, ptr %6, i64 8
  br label %59

8:                                                ; preds = %2
  %9 = getelementptr inbounds nuw i8, ptr %1, i64 48
  %10 = load ptr, ptr %9, align 8
  %11 = icmp eq ptr %10, null
  br i1 %11, label %15, label %12

12:                                               ; preds = %8
  %13 = getelementptr inbounds nuw i8, ptr %1, i64 40
  %14 = load i32, ptr %13, align 8
  %.not26 = icmp eq i32 %14, 2249
  br i1 %.not26, label %17, label %15

15:                                               ; preds = %12, %8
  %16 = getelementptr inbounds nuw i8, ptr %1, i64 40
  br label %59

17:                                               ; preds = %12
  %18 = getelementptr inbounds nuw i8, ptr %10, i64 60
  br label %59

19:                                               ; preds = %2
  %20 = getelementptr inbounds nuw i8, ptr %0, i64 112
  %21 = load ptr, ptr %20, align 8
  %22 = getelementptr inbounds nuw i8, ptr %1, i64 16
  %23 = load i32, ptr %22, align 8
  %24 = sext i32 %23 to i64
  %25 = getelementptr inbounds ptr, ptr %21, i64 %24
  %26 = load ptr, ptr %25, align 8
  %27 = getelementptr inbounds nuw i8, ptr %26, i64 48
  %28 = load ptr, ptr %27, align 8
  %29 = icmp eq ptr %28, null
  br i1 %29, label %30, label %31

30:                                               ; preds = %19
  tail call fastcc void @instantiate_empty_record_variable(ptr noundef nonnull %0, ptr noundef nonnull %26)
  %.pre = load ptr, ptr %27, align 8
  br label %31

31:                                               ; preds = %30, %19
  %32 = phi ptr [ %.pre, %30 ], [ %28, %19 ]
  %33 = getelementptr inbounds nuw i8, ptr %1, i64 24
  %34 = load i64, ptr %33, align 8
  %35 = getelementptr inbounds nuw i8, ptr %32, i64 80
  %36 = load i64, ptr %35, align 8
  %.not = icmp eq i64 %34, %36
  br i1 %.not, label %53, label %37, !prof !7

37:                                               ; preds = %31
  %38 = getelementptr inbounds nuw i8, ptr %1, i64 8
  %39 = load ptr, ptr %38, align 8
  %40 = getelementptr inbounds nuw i8, ptr %1, i64 32
  %41 = tail call zeroext i1 @expanded_record_lookup_field(ptr noundef nonnull %32, ptr noundef %39, ptr noundef nonnull %40) #12
  br i1 %41, label %49, label %42

42:                                               ; preds = %37
  %43 = tail call zeroext i1 @errstart_cold(i32 noundef 21, ptr noundef nonnull @.str.2) #13
  tail call void @llvm.assume(i1 %43)
  %44 = tail call i32 @errcode(i32 noundef 50360452) #12
  %45 = getelementptr inbounds nuw i8, ptr %26, i64 8
  %46 = load ptr, ptr %45, align 8
  %47 = load ptr, ptr %38, align 8
  %48 = tail call i32 (ptr, ...) @errmsg(ptr noundef nonnull @.str.16, ptr noundef %46, ptr noundef %47) #12
  tail call void @errfinish(ptr noundef nonnull @.str.4, i32 noundef 5513, ptr noundef nonnull @__func__.plpgsql_exec_get_datum_type) #12
  unreachable

49:                                               ; preds = %37
  %50 = load ptr, ptr %27, align 8
  %51 = getelementptr inbounds nuw i8, ptr %50, i64 80
  %52 = load i64, ptr %51, align 8
  store i64 %52, ptr %33, align 8
  br label %53

53:                                               ; preds = %49, %31
  %54 = getelementptr inbounds nuw i8, ptr %1, i64 36
  br label %59

55:                                               ; preds = %2
  %56 = tail call zeroext i1 @errstart_cold(i32 noundef 21, ptr noundef nonnull @.str.2) #13
  tail call void @llvm.assume(i1 %56)
  %57 = load i32, ptr %1, align 4
  %58 = tail call i32 (ptr, ...) @errmsg_internal(ptr noundef nonnull @.str.3, i32 noundef %57) #12
  tail call void @errfinish(ptr noundef nonnull @.str.4, i32 noundef 5522, ptr noundef nonnull @__func__.plpgsql_exec_get_datum_type) #12
  unreachable

59:                                               ; preds = %15, %17, %53, %4
  %.0.in = phi ptr [ %54, %53 ], [ %7, %4 ], [ %16, %15 ], [ %18, %17 ]
  %.0 = load i32, ptr %.0.in, align 4
  ret i32 %.0
}